target datalayout = "e-m:e-p270:32:32-p271:32:32-p272:64:64-i64:64-i128:128-f80:128-n8:16:32:64-S128"
target triple = "x86_64-pc-linux-gnu"

%struct.jsmntok_t = type { i32, i32, i32, i32 }

@rpcid = internal global i32 0, align 4
@.str.24 = private unnamed_addr constant [6 x i8] c"frame\00", align 1
@.str.82 = private unnamed_addr constant [8 x i8] c"comment\00", align 1
@.str.439 = private unnamed_addr constant [40 x i8] c"Frame number must be a positive integer\00", align 1
@.str.440 = private unnamed_addr constant [29 x i8] c"Frame number is out of range\00", align 1
@.str.441 = private unnamed_addr constant [26 x i8] c"Unable to set the comment\00", align 1

; Function Attrs: nounwind null_pointer_is_valid sspstrong uwtable
define internal ptr @json_find_attr(ptr noundef %0, ptr noundef %1, i32 noundef %2, ptr noundef %3) #7 {
  %5 = alloca ptr, align 8
  %6 = alloca ptr, align 8
  %7 = alloca ptr, align 8
  %8 = alloca i32, align 4
  %9 = alloca ptr, align 8
  %10 = alloca i32, align 4
  %11 = alloca ptr, align 8
  %12 = alloca ptr, align 8
  %13 = alloca i32, align 4
  store ptr %0, ptr %6, align 8
  store ptr %1, ptr %7, align 8
  store i32 %2, ptr %8, align 4
  store ptr %3, ptr %9, align 8
  call void @llvm.lifetime.start.p0(i64 4, ptr %10) #21
  store i32 0, ptr %10, align 4
  br label %14

14:                                               ; preds = %49, %4
  %15 = load i32, ptr %10, align 4
  %16 = load i32, ptr %8, align 4
  %17 = icmp slt i32 %15, %16
  br i1 %17, label %18, label %52

18:                                               ; preds = %14
  call void @llvm.lifetime.start.p0(i64 8, ptr %11) #21
  %19 = load ptr, ptr %6, align 8
  %20 = load ptr, ptr %7, align 8
  %21 = load i32, ptr %10, align 4
  %22 = add i32 %21, 0
  %23 = sext i32 %22 to i64
  %24 = getelementptr %struct.jsmntok_t, ptr %20, i64 %23
  %25 = getelementptr inbounds nuw %struct.jsmntok_t, ptr %24, i32 0, i32 1
  %26 = load i32, ptr %25, align 4
  %27 = sext i32 %26 to i64
  %28 = getelementptr i8, ptr %19, i64 %27
  store ptr %28, ptr %11, align 8
  call void @llvm.lifetime.start.p0(i64 8, ptr %12) #21
  %29 = load ptr, ptr %6, align 8
  %30 = load ptr, ptr %7, align 8
  %31 = load i32, ptr %10, align 4
  %32 = add i32 %31, 1
  %33 = sext i32 %32 to i64
  %34 = getelementptr %struct.jsmntok_t, ptr %30, i64 %33
  %35 = getelementptr inbounds nuw %struct.jsmntok_t, ptr %34, i32 0, i32 1
  %36 = load i32, ptr %35, align 4
  %37 = sext i32 %36 to i64
  %38 = getelementptr i8, ptr %29, i64 %37
  store ptr %38, ptr %12, align 8
  %39 = load ptr, ptr %11, align 8
  %40 = load ptr, ptr %9, align 8
  %41 = call i32 @strcmp(ptr noundef %39, ptr noundef %40) #22
  %42 = icmp ne i32 %41, 0
  br i1 %42, label %45, label %43

43:                                               ; preds = %18
  %44 = load ptr, ptr %12, align 8
  store ptr %44, ptr %5, align 8
  store i32 1, ptr %13, align 4
  br label %46

45:                                               ; preds = %18
  store i32 0, ptr %13, align 4
  br label %46

46:                                               ; preds = %45, %43
  call void @llvm.lifetime.end.p0(i64 8, ptr %12) #21
  call void @llvm.lifetime.end.p0(i64 8, ptr %11) #21
  %47 = load i32, ptr %13, align 4
  switch i32 %47, label %53 [
    i32 0, label %48
  ]

48:                                               ; preds = %46
  br label %49

49:                                               ; preds = %48
  %50 = load i32, ptr %10, align 4
  %51 = add i32 %50, 2
  store i32 %51, ptr %10, align 4
  br label %14, !llvm.loop !18

52:                                               ; preds = %14
  store ptr null, ptr %5, align 8
  store i32 1, ptr %13, align 4
  br label %53

53:                                               ; preds = %52, %46
  call void @llvm.lifetime.end.p0(i64 4, ptr %10) #21
  %54 = load ptr, ptr %5, align 8
  ret ptr %54
}

; Function Attrs: null_pointer_is_valid sspstrong uwtable
define internal void @sharkd_session_process_setcomment(ptr noundef %0, ptr noundef %1, i32 noundef %2) #0 {
  %4 = alloca ptr, align 8
  %5 = alloca ptr, align 8
  %6 = alloca i32, align 4
  %7 = alloca ptr, align 8
  %8 = alloca ptr, align 8
  %9 = alloca i32, align 4
  %10 = alloca ptr, align 8
  %11 = alloca i32, align 4
  %12 = alloca ptr, align 8
  %13 = alloca i32, align 4
  store ptr %0, ptr %4, align 8
  store ptr %1, ptr %5, align 8
  store i32 %2, ptr %6, align 4
  call void @llvm.lifetime.start.p0(i64 8, ptr %7) #21
  %14 = load ptr, ptr %4, align 8
  %15 = load ptr, ptr %5, align 8
  %16 = load i32, ptr %6, align 4
  %17 = call ptr @json_find_attr(ptr noundef %14, ptr noundef %15, i32 noundef %16, ptr noundef @.str.24)
  store ptr %17, ptr %7, align 8
  call void @llvm.lifetime.start.p0(i64 8, ptr %8) #21
  %18 = load ptr, ptr %4, align 8
  %19 = load ptr, ptr %5, align 8
  %20 = load i32, ptr %6, align 4
  %21 = call ptr @json_find_attr(ptr noundef %18, ptr noundef %19, i32 noundef %20, ptr noundef @.str.82)
  store ptr %21, ptr %8, align 8
  call void @llvm.lifetime.start.p0(i64 4, ptr %9) #21
  call void @llvm.lifetime.start.p0(i64 8, ptr %10) #21
  call void @llvm.lifetime.start.p0(i64 4, ptr %11) #21
  call void @llvm.lifetime.start.p0(i64 8, ptr %12) #21
  store ptr null, ptr %12, align 8
  %22 = load ptr, ptr %7, align 8
  %23 = icmp ne ptr %22, null
  br i1 %23, label %24, label %30

24:                                               ; preds = %3
  %25 = load ptr, ptr %7, align 8
  %26 = call zeroext i1 @ws_strtou32(ptr noundef %25, ptr noundef null, ptr noundef %9)
  br i1 %26, label %27, label %30

27:                                               ; preds = %24
  %28 = load i32, ptr %9, align 4
  %29 = icmp eq i32 %28, 0
  br i1 %29, label %30, label %32

30:                                               ; preds = %27, %24, %3
  %31 = load i32, ptr @rpcid, align 4
  call void (i32, i32, ptr, ptr, ...) @sharkd_json_error(i32 noundef %31, i32 noundef -3001, ptr noundef null, ptr noundef @.str.439)
  store i32 1, ptr %13, align 4
  br label %57

32:                                               ; preds = %27
  %33 = load i32, ptr %9, align 4
  %34 = call ptr @sharkd_get_frame(i32 noundef %33)
  store ptr %34, ptr %10, align 8
  %35 = load ptr, ptr %10, align 8
  %36 = icmp ne ptr %35, null
  br i1 %36, label %39, label %37

37:                                               ; preds = %32
  %38 = load i32, ptr @rpcid, align 4
  call void (i32, i32, ptr, ptr, ...) @sharkd_json_error(i32 noundef %38, i32 noundef -3002, ptr noundef null, ptr noundef @.str.440)
  store i32 1, ptr %13, align 4
  br label %57

39:                                               ; preds = %32
  %40 = load ptr, ptr %10, align 8
  %41 = call ptr @sharkd_get_packet_block(ptr noundef %40)
  store ptr %41, ptr %12, align 8
  %42 = load ptr, ptr %12, align 8
  %43 = load ptr, ptr %8, align 8
  %44 = load ptr, ptr %8, align 8
  %45 = call i64 @strlen(ptr noundef %44) #22
  %46 = call i32 @wtap_block_add_string_option(ptr noundef %42, i32 noundef 1, ptr noundef %43, i64 noundef %45)
  store i32 %46, ptr %11, align 4
  %47 = load i32, ptr %11, align 4
  %48 = icmp ne i32 %47, 0
  br i1 %48, label %49, label %51

49:                                               ; preds = %39
  %50 = load i32, ptr @rpcid, align 4
  call void (i32, i32, ptr, ptr, ...) @sharkd_json_error(i32 noundef %50, i32 noundef -3003, ptr noundef null, ptr noundef @.str.441)
  br label %56

51:                                               ; preds = %39
  %52 = load ptr, ptr %10, align 8
  %53 = load ptr, ptr %12, align 8
  %54 = call i32 @sharkd_set_modified_block(ptr noundef %52, ptr noundef %53)
  %55 = load i32, ptr @rpcid, align 4
  call void @sharkd_json_simple_ok(i32 noundef %55)
  br label %56

56:                                               ; preds = %51, %49
  store i32 0, ptr %13, align 4
  br label %57

57:                                               ; preds = %56, %37, %30
  call void @llvm.lifetime.end.p0(i64 8, ptr %12) #21
  call void @llvm.lifetime.end.p0(i64 4, ptr %11) #21
  call void @llvm.lifetime.end.p0(i64 8, ptr %10) #21
  call void @llvm.lifetime.end.p0(i64 4, ptr %9) #21
  call void @llvm.lifetime.end.p0(i64 8, ptr %8) #21
  call void @llvm.lifetime.end.p0(i64 8, ptr %7) #21
  %58 = load i32, ptr %13, align 4
  switch i32 %58, label %60 [
    i32 0, label %59
    i32 1, label %59
  ]

59:                                               ; preds = %57, %57
  ret void

60:                                               ; preds = %57
  unreachable
}