; Function Attrs: null_pointer_is_valid sspstrong uwtable
define internal fastcc void @sharkd_session_process_setcomment(ptr noundef %0, ptr noundef readonly captures(none) %1, i32 noundef range(i32 0, 2147483647) %2) unnamed_addr #0 {
  %4 = alloca i32, align 4
  %.not.i = icmp eq i32 %2, 0
  br i1 %.not.i, label %json_find_attr.exit29.thread, label %.lr.ph.preheader.i

json_find_attr.exit29.thread:                     ; preds = %3
  call void @llvm.lifetime.start.p0(i64 4, ptr nonnull %4) #17
  br label %36

.lr.ph.preheader.i:                               ; preds = %3
  %5 = zext nneg i32 %2 to i64
  br label %.lr.ph.i

.lr.ph.i:                                         ; preds = %17, %.lr.ph.preheader.i
  %indvars.iv.i = phi i64 [ 0, %.lr.ph.preheader.i ], [ %indvars.iv.next.i, %17 ]
  %6 = getelementptr %struct.jsmntok_t, ptr %1, i64 %indvars.iv.i, i32 1
  %7 = load i32, ptr %6, align 4
  %8 = sext i32 %7 to i64
  %9 = getelementptr i8, ptr %0, i64 %8
  %10 = tail call i32 @strcmp(ptr noundef readonly %9, ptr noundef nonnull dereferenceable(6) @.str.24) #18
  %.not.not.i = icmp eq i32 %10, 0
  br i1 %.not.not.i, label %.thread.i, label %17

.thread.i:                                        ; preds = %.lr.ph.i
  %11 = and i64 %indvars.iv.i, 4294967294
  %12 = or disjoint i64 %11, 1
  %13 = getelementptr %struct.jsmntok_t, ptr %1, i64 %12, i32 1
  %14 = load i32, ptr %13, align 4
  %15 = sext i32 %14 to i64
  %16 = getelementptr i8, ptr %0, i64 %15
  br label %.lr.ph.preheader.i22

17:                                               ; preds = %.lr.ph.i
  %indvars.iv.next.i = add nuw nsw i64 %indvars.iv.i, 2
  %18 = icmp samesign ult i64 %indvars.iv.next.i, %5
  br i1 %18, label %.lr.ph.i, label %.lr.ph.preheader.i22, !llvm.loop !10

.lr.ph.preheader.i22:                             ; preds = %17, %.thread.i
  %.2.i = phi ptr [ %16, %.thread.i ], [ null, %17 ]
  br label %.lr.ph.i23

.lr.ph.i23:                                       ; preds = %30, %.lr.ph.preheader.i22
  %indvars.iv.i24 = phi i64 [ 0, %.lr.ph.preheader.i22 ], [ %indvars.iv.next.i26, %30 ]
  %19 = getelementptr %struct.jsmntok_t, ptr %1, i64 %indvars.iv.i24, i32 1
  %20 = load i32, ptr %19, align 4
  %21 = sext i32 %20 to i64
  %22 = getelementptr i8, ptr %0, i64 %21
  %23 = tail call i32 @strcmp(ptr noundef readonly %22, ptr noundef nonnull dereferenceable(8) @.str.82) #18
  %.not.not.i25 = icmp eq i32 %23, 0
  br i1 %.not.not.i25, label %.thread.i28, label %30

.thread.i28:                                      ; preds = %.lr.ph.i23
  %24 = and i64 %indvars.iv.i24, 4294967294
  %25 = or disjoint i64 %24, 1
  %26 = getelementptr %struct.jsmntok_t, ptr %1, i64 %25, i32 1
  %27 = load i32, ptr %26, align 4
  %28 = sext i32 %27 to i64
  %29 = getelementptr i8, ptr %0, i64 %28
  br label %json_find_attr.exit29

30:                                               ; preds = %.lr.ph.i23
  %indvars.iv.next.i26 = add nuw nsw i64 %indvars.iv.i24, 2
  %31 = icmp samesign ult i64 %indvars.iv.next.i26, %5
  br i1 %31, label %.lr.ph.i23, label %json_find_attr.exit29, !llvm.loop !10

json_find_attr.exit29:                            ; preds = %30, %.thread.i28
  %.2.i27 = phi ptr [ %29, %.thread.i28 ], [ null, %30 ]
  call void @llvm.lifetime.start.p0(i64 4, ptr nonnull %4) #17
  %.not18 = icmp eq ptr %.2.i, null
  br i1 %.not18, label %36, label %32

32:                                               ; preds = %json_find_attr.exit29
  %33 = call zeroext i1 @ws_strtou32(ptr noundef nonnull %.2.i, ptr noundef null, ptr noundef nonnull %4)
  %34 = load i32, ptr %4, align 4
  %35 = icmp ne i32 %34, 0
  %or.cond.not = select i1 %33, i1 %35, i1 false
  br i1 %or.cond.not, label %38, label %36

36:                                               ; preds = %json_find_attr.exit29.thread, %32, %json_find_attr.exit29
  %37 = load i32, ptr @rpcid, align 4
  call void (i32, i32, ptr, ptr, ...) @sharkd_json_error(i32 noundef %37, i32 noundef -3001, ptr poison, ptr noundef nonnull @.str.439)
  br label %51

38:                                               ; preds = %32
  %39 = call ptr @sharkd_get_frame(i32 noundef %34)
  %.not = icmp eq ptr %39, null
  br i1 %.not, label %40, label %42

40:                                               ; preds = %38
  %41 = load i32, ptr @rpcid, align 4
  call void (i32, i32, ptr, ptr, ...) @sharkd_json_error(i32 noundef %41, i32 noundef -3002, ptr poison, ptr noundef nonnull @.str.440)
  br label %51

42:                                               ; preds = %38
  %43 = call ptr @sharkd_get_packet_block(ptr noundef nonnull %39)
  %44 = call i64 @strlen(ptr noundef %.2.i27) #18
  %45 = call i32 @wtap_block_add_string_option(ptr noundef %43, i32 noundef 1, ptr noundef %.2.i27, i64 noundef %44)
  %.not20 = icmp eq i32 %45, 0
  br i1 %.not20, label %48, label %46

46:                                               ; preds = %42
  %47 = load i32, ptr @rpcid, align 4
  call void (i32, i32, ptr, ptr, ...) @sharkd_json_error(i32 noundef %47, i32 noundef -3003, ptr poison, ptr noundef nonnull @.str.441)
  br label %51

48:                                               ; preds = %42
  %49 = call i32 @sharkd_set_modified_block(ptr noundef nonnull %39, ptr noundef %43)
  %50 = load i32, ptr @rpcid, align 4
  call fastcc void @sharkd_json_simple_ok(i32 noundef %50)
  br label %51

51:                                               ; preds = %46, %48, %40, %36
  call void @llvm.lifetime.end.p0(i64 4, ptr nonnull %4) #17
  ret void
}